target datalayout = "e-m:e-p270:32:32-p271:32:32-p272:64:64-i64:64-i128:128-f80:128-n8:16:32:64-S128"
target triple = "x86_64-pc-linux-gnu"

%struct.AVFilterContext = type { ptr, ptr, ptr, ptr, ptr, i32, ptr, ptr, i32, ptr, ptr, i32, i32, ptr, ptr, ptr, ptr, i32, ptr, i32, i32 }
%struct.ColorConstancyContext = type { ptr, i32, i32, double, i32, [4 x i32], [4 x i32], i32, [3 x ptr], [3 x double] }
%struct.AVChannelLayout = type { i32, i32, %union.anon.1, ptr }
%union.anon.1 = type { i64 }
%struct.AVRational = type { i32, i32 }
%struct.ThreadData = type { ptr, ptr, [4 x i32], [4 x [3 x ptr]] }
%struct.AVFrame = type { [8 x ptr], [8 x i32], ptr, i32, i32, i32, i32, i32, %struct.AVRational, i64, i64, %struct.AVRational, i32, ptr, i32, i32, [8 x ptr], ptr, i32, ptr, i32, i32, i32, i32, i32, i32, i32, i64, ptr, i32, ptr, ptr, i64, i64, i64, i64, ptr, %struct.AVChannelLayout, i64 }

; Function Attrs: alwaysinline nounwind willreturn memory(none) uwtable
define internal zeroext i8 @av_clip_uint8_c(i32 noundef %0) #6 {
  %2 = alloca i8, align 1
  %3 = alloca i32, align 4
  store i32 %0, ptr %3, align 4, !tbaa !27
  %4 = load i32, ptr %3, align 4, !tbaa !27
  %5 = and i32 %4, -256
  %6 = icmp ne i32 %5, 0
  br i1 %6, label %7, label %12

7:                                                ; preds = %1
  %8 = load i32, ptr %3, align 4, !tbaa !27
  %9 = xor i32 %8, -1
  %10 = ashr i32 %9, 31
  %11 = trunc i32 %10 to i8
  store i8 %11, ptr %2, align 1
  br label %15

12:                                               ; preds = %1
  %13 = load i32, ptr %3, align 4, !tbaa !27
  %14 = trunc i32 %13 to i8
  store i8 %14, ptr %2, align 1
  br label %15

15:                                               ; preds = %12, %7
  %16 = load i8, ptr %2, align 1
  ret i8 %16
}

; Function Attrs: nounwind uwtable
define internal i32 @diagonal_transformation(ptr noundef %0, ptr noundef %1, i32 noundef %2, i32 noundef %3) #1 {
  %5 = alloca ptr, align 8
  %6 = alloca ptr, align 8
  %7 = alloca i32, align 4
  %8 = alloca i32, align 4
  %9 = alloca ptr, align 8
  %10 = alloca ptr, align 8
  %11 = alloca ptr, align 8
  %12 = alloca ptr, align 8
  %13 = alloca i32, align 4
  %14 = alloca i32, align 4
  %15 = alloca i32, align 4
  %16 = alloca i64, align 8
  %17 = alloca i32, align 4
  %18 = alloca i32, align 4
  %19 = alloca ptr, align 8
  %20 = alloca ptr, align 8
  %21 = alloca double, align 8
  %22 = alloca i32, align 4
  store ptr %0, ptr %5, align 8, !tbaa !4
  store ptr %1, ptr %6, align 8, !tbaa !71
  store i32 %2, ptr %7, align 4, !tbaa !27
  store i32 %3, ptr %8, align 4, !tbaa !27
  call void @llvm.lifetime.start.p0(i64 8, ptr %9) #9
  %23 = load ptr, ptr %5, align 8, !tbaa !4
  %24 = getelementptr inbounds nuw %struct.AVFilterContext, ptr %23, i32 0, i32 9
  %25 = load ptr, ptr %24, align 8, !tbaa !9
  store ptr %25, ptr %9, align 8, !tbaa !22
  call void @llvm.lifetime.start.p0(i64 8, ptr %10) #9
  %26 = load ptr, ptr %6, align 8, !tbaa !71
  store ptr %26, ptr %10, align 8, !tbaa !67
  call void @llvm.lifetime.start.p0(i64 8, ptr %11) #9
  %27 = load ptr, ptr %10, align 8, !tbaa !67
  %28 = getelementptr inbounds nuw %struct.ThreadData, ptr %27, i32 0, i32 0
  %29 = load ptr, ptr %28, align 8, !tbaa !56
  store ptr %29, ptr %11, align 8, !tbaa !32
  call void @llvm.lifetime.start.p0(i64 8, ptr %12) #9
  %30 = load ptr, ptr %10, align 8, !tbaa !67
  %31 = getelementptr inbounds nuw %struct.ThreadData, ptr %30, i32 0, i32 1
  %32 = load ptr, ptr %31, align 8, !tbaa !58
  store ptr %32, ptr %12, align 8, !tbaa !32
  call void @llvm.lifetime.start.p0(i64 4, ptr %13) #9
  store i32 0, ptr %13, align 4, !tbaa !27
  br label %33

33:                                               ; preds = %116, %4
  %34 = load i32, ptr %13, align 4, !tbaa !27
  %35 = icmp slt i32 %34, 3
  br i1 %35, label %36, label %119

36:                                               ; preds = %33
  call void @llvm.lifetime.start.p0(i64 4, ptr %14) #9
  %37 = load ptr, ptr %9, align 8, !tbaa !22
  %38 = getelementptr inbounds nuw %struct.ColorConstancyContext, ptr %37, i32 0, i32 5
  %39 = load i32, ptr %13, align 4, !tbaa !27
  %40 = sext i32 %39 to i64
  %41 = getelementptr inbounds [4 x i32], ptr %38, i64 0, i64 %40
  %42 = load i32, ptr %41, align 4, !tbaa !27
  store i32 %42, ptr %14, align 4, !tbaa !27
  call void @llvm.lifetime.start.p0(i64 4, ptr %15) #9
  %43 = load ptr, ptr %9, align 8, !tbaa !22
  %44 = getelementptr inbounds nuw %struct.ColorConstancyContext, ptr %43, i32 0, i32 6
  %45 = load i32, ptr %13, align 4, !tbaa !27
  %46 = sext i32 %45 to i64
  %47 = getelementptr inbounds [4 x i32], ptr %44, i64 0, i64 %46
  %48 = load i32, ptr %47, align 4, !tbaa !27
  store i32 %48, ptr %15, align 4, !tbaa !27
  call void @llvm.lifetime.start.p0(i64 8, ptr %16) #9
  %49 = load i32, ptr %15, align 4, !tbaa !27
  %50 = sext i32 %49 to i64
  %51 = load i32, ptr %14, align 4, !tbaa !27
  %52 = sext i32 %51 to i64
  %53 = mul nsw i64 %50, %52
  store i64 %53, ptr %16, align 8, !tbaa !72
  call void @llvm.lifetime.start.p0(i64 4, ptr %17) #9
  %54 = load i64, ptr %16, align 8, !tbaa !72
  %55 = load i32, ptr %7, align 4, !tbaa !27
  %56 = sext i32 %55 to i64
  %57 = mul nsw i64 %54, %56
  %58 = load i32, ptr %8, align 4, !tbaa !27
  %59 = sext i32 %58 to i64
  %60 = sdiv i64 %57, %59
  %61 = trunc i64 %60 to i32
  store i32 %61, ptr %17, align 4, !tbaa !27
  call void @llvm.lifetime.start.p0(i64 4, ptr %18) #9
  %62 = load i64, ptr %16, align 8, !tbaa !72
  %63 = load i32, ptr %7, align 4, !tbaa !27
  %64 = add nsw i32 %63, 1
  %65 = sext i32 %64 to i64
  %66 = mul nsw i64 %62, %65
  %67 = load i32, ptr %8, align 4, !tbaa !27
  %68 = sext i32 %67 to i64
  %69 = sdiv i64 %66, %68
  %70 = trunc i64 %69 to i32
  store i32 %70, ptr %18, align 4, !tbaa !27
  call void @llvm.lifetime.start.p0(i64 8, ptr %19) #9
  %71 = load ptr, ptr %11, align 8, !tbaa !32
  %72 = getelementptr inbounds nuw %struct.AVFrame, ptr %71, i32 0, i32 0
  %73 = load i32, ptr %13, align 4, !tbaa !27
  %74 = sext i32 %73 to i64
  %75 = getelementptr inbounds [8 x ptr], ptr %72, i64 0, i64 %74
  %76 = load ptr, ptr %75, align 8, !tbaa !77
  store ptr %76, ptr %19, align 8, !tbaa !77
  call void @llvm.lifetime.start.p0(i64 8, ptr %20) #9
  %77 = load ptr, ptr %12, align 8, !tbaa !32
  %78 = getelementptr inbounds nuw %struct.AVFrame, ptr %77, i32 0, i32 0
  %79 = load i32, ptr %13, align 4, !tbaa !27
  %80 = sext i32 %79 to i64
  %81 = getelementptr inbounds [8 x ptr], ptr %78, i64 0, i64 %80
  %82 = load ptr, ptr %81, align 8, !tbaa !77
  store ptr %82, ptr %20, align 8, !tbaa !77
  call void @llvm.lifetime.start.p0(i64 8, ptr %21) #9
  call void @llvm.lifetime.start.p0(i64 4, ptr %22) #9
  %83 = load i32, ptr %17, align 4, !tbaa !27
  store i32 %83, ptr %22, align 4, !tbaa !27
  br label %84

84:                                               ; preds = %112, %36
  %85 = load i32, ptr %22, align 4, !tbaa !27
  %86 = load i32, ptr %18, align 4, !tbaa !27
  %87 = icmp ult i32 %85, %86
  br i1 %87, label %88, label %115

88:                                               ; preds = %84
  %89 = load ptr, ptr %19, align 8, !tbaa !77
  %90 = load i32, ptr %22, align 4, !tbaa !27
  %91 = zext i32 %90 to i64
  %92 = getelementptr inbounds nuw i8, ptr %89, i64 %91
  %93 = load i8, ptr %92, align 1, !tbaa !76
  %94 = zext i8 %93 to i32
  %95 = sitofp i32 %94 to double
  %96 = load ptr, ptr %9, align 8, !tbaa !22
  %97 = getelementptr inbounds nuw %struct.ColorConstancyContext, ptr %96, i32 0, i32 9
  %98 = load i32, ptr %13, align 4, !tbaa !27
  %99 = sext i32 %98 to i64
  %100 = getelementptr inbounds [3 x double], ptr %97, i64 0, i64 %99
  %101 = load double, ptr %100, align 8, !tbaa !48
  %102 = fmul nsz double %101, 0x3FFBB67AE858606B
  %103 = fdiv nsz double %95, %102
  store double %103, ptr %21, align 8, !tbaa !48
  %104 = load double, ptr %21, align 8, !tbaa !48
  %105 = fadd nsz double %104, 5.000000e-01
  %106 = fptosi double %105 to i32
  %107 = call zeroext i8 @av_clip_uint8_c(i32 noundef %106) #11
  %108 = load ptr, ptr %20, align 8, !tbaa !77
  %109 = load i32, ptr %22, align 4, !tbaa !27
  %110 = zext i32 %109 to i64
  %111 = getelementptr inbounds nuw i8, ptr %108, i64 %110
  store i8 %107, ptr %111, align 1, !tbaa !76
  br label %112

112:                                              ; preds = %88
  %113 = load i32, ptr %22, align 4, !tbaa !27
  %114 = add i32 %113, 1
  store i32 %114, ptr %22, align 4, !tbaa !27
  br label %84, !llvm.loop !93

115:                                              ; preds = %84
  call void @llvm.lifetime.end.p0(i64 4, ptr %22) #9
  call void @llvm.lifetime.end.p0(i64 8, ptr %21) #9
  call void @llvm.lifetime.end.p0(i64 8, ptr %20) #9
  call void @llvm.lifetime.end.p0(i64 8, ptr %19) #9
  call void @llvm.lifetime.end.p0(i64 4, ptr %18) #9
  call void @llvm.lifetime.end.p0(i64 4, ptr %17) #9
  call void @llvm.lifetime.end.p0(i64 8, ptr %16) #9
  call void @llvm.lifetime.end.p0(i64 4, ptr %15) #9
  call void @llvm.lifetime.end.p0(i64 4, ptr %14) #9
  br label %116

116:                                              ; preds = %115
  %117 = load i32, ptr %13, align 4, !tbaa !27
  %118 = add nsw i32 %117, 1
  store i32 %118, ptr %13, align 4, !tbaa !27
  br label %33, !llvm.loop !94

119:                                              ; preds = %33
  call void @llvm.lifetime.end.p0(i64 4, ptr %13) #9
  call void @llvm.lifetime.end.p0(i64 8, ptr %12) #9
  call void @llvm.lifetime.end.p0(i64 8, ptr %11) #9
  call void @llvm.lifetime.end.p0(i64 8, ptr %10) #9
  call void @llvm.lifetime.end.p0(i64 8, ptr %9) #9
  ret i32 0
}