; Function Attrs: nofree norecurse nosync nounwind memory(readwrite, inaccessiblemem: none) uwtable
define internal noundef i32 @diagonal_transformation(ptr noundef readonly captures(none) %0, ptr noundef readonly captures(none) %1, i32 noundef %2, i32 noundef %3) #4 {
  %5 = getelementptr inbounds nuw i8, ptr %0, i64 72
  %6 = load ptr, ptr %5, align 8, !tbaa !4
  %7 = load ptr, ptr %1, align 8, !tbaa !42
  %8 = getelementptr inbounds nuw i8, ptr %1, i64 8
  %9 = load ptr, ptr %8, align 8, !tbaa !60
  %10 = getelementptr inbounds nuw i8, ptr %6, i64 28
  %11 = getelementptr inbounds nuw i8, ptr %6, i64 44
  %12 = sext i32 %2 to i64
  %13 = sext i32 %3 to i64
  %14 = add nsw i32 %2, 1
  %15 = sext i32 %14 to i64
  %16 = getelementptr inbounds nuw i8, ptr %6, i64 88
  br label %17

17:                                               ; preds = %4, %._crit_edge
  %indvars.iv36 = phi i64 [ 0, %4 ], [ %indvars.iv.next37, %._crit_edge ]
  %18 = getelementptr inbounds nuw [4 x i32], ptr %10, i64 0, i64 %indvars.iv36
  %19 = load i32, ptr %18, align 4, !tbaa !40
  %20 = getelementptr inbounds nuw [4 x i32], ptr %11, i64 0, i64 %indvars.iv36
  %21 = load i32, ptr %20, align 4, !tbaa !40
  %22 = sext i32 %21 to i64
  %23 = sext i32 %19 to i64
  %24 = mul nsw i64 %22, %23
  %25 = mul nsw i64 %24, %12
  %26 = sdiv i64 %25, %13
  %27 = trunc i64 %26 to i32
  %28 = mul nsw i64 %24, %15
  %29 = sdiv i64 %28, %13
  %30 = trunc i64 %29 to i32
  %31 = getelementptr inbounds nuw [8 x ptr], ptr %7, i64 0, i64 %indvars.iv36
  %32 = load ptr, ptr %31, align 8, !tbaa !79
  %33 = getelementptr inbounds nuw [8 x ptr], ptr %9, i64 0, i64 %indvars.iv36
  %34 = load ptr, ptr %33, align 8, !tbaa !79
  %35 = icmp ult i32 %27, %30
  br i1 %35, label %.lr.ph, label %._crit_edge

.lr.ph:                                           ; preds = %17
  %36 = getelementptr inbounds nuw [3 x double], ptr %16, i64 0, i64 %indvars.iv36
  %37 = and i64 %26, 4294967295
  %wide.trip.count = and i64 %29, 4294967295
  br label %38

38:                                               ; preds = %.lr.ph, %38
  %indvars.iv = phi i64 [ %37, %.lr.ph ], [ %indvars.iv.next, %38 ]
  %39 = getelementptr inbounds nuw i8, ptr %32, i64 %indvars.iv
  %40 = load i8, ptr %39, align 1, !tbaa !81
  %41 = uitofp i8 %40 to double
  %42 = load double, ptr %36, align 8, !tbaa !51
  %43 = fmul nsz double %42, 0x3FFBB67AE858606B
  %44 = fdiv nsz double %41, %43
  %45 = fadd nsz double %44, 5.000000e-01
  %46 = fptosi double %45 to i32
  %.not.i = icmp ult i32 %46, 256
  %isnotneg.i = icmp sgt i32 %46, -1
  %47 = sext i1 %isnotneg.i to i8
  %48 = trunc nuw i32 %46 to i8
  %.0.i = select i1 %.not.i, i8 %48, i8 %47
  %49 = getelementptr inbounds nuw i8, ptr %34, i64 %indvars.iv
  store i8 %.0.i, ptr %49, align 1, !tbaa !81
  %indvars.iv.next = add nuw nsw i64 %indvars.iv, 1
  %exitcond.not = icmp eq i64 %indvars.iv.next, %wide.trip.count
  br i1 %exitcond.not, label %._crit_edge, label %38, !llvm.loop !93

._crit_edge:                                      ; preds = %38, %17
  %indvars.iv.next37 = add nuw nsw i64 %indvars.iv36, 1
  %exitcond39.not = icmp eq i64 %indvars.iv.next37, 3
  br i1 %exitcond39.not, label %50, label %17, !llvm.loop !94

50:                                               ; preds = %._crit_edge
  ret i32 0
}